target datalayout = "e-m:e-p270:32:32-p271:32:32-p272:64:64-i64:64-i128:128-f80:128-n8:16:32:64-S128"
target triple = "x86_64-pc-linux-gnu"

%struct.xcgroup_t = type { ptr, ptr, ptr, i32, i32, i32 }

@.str.12 = private unnamed_addr constant [38 x i8] c"%s: unable to create cgroup '%s' : %m\00", align 1
@__func__.common_cgroup_instantiate = private unnamed_addr constant [26 x i8] c"common_cgroup_instantiate\00", align 1

; Function Attrs: nounwind uwtable
define dso_local i32 @common_cgroup_instantiate(ptr noundef %0) #0 {
  %2 = alloca i32, align 4
  %3 = alloca ptr, align 8
  %4 = alloca i32, align 4
  %5 = alloca i32, align 4
  %6 = alloca i32, align 4
  %7 = alloca ptr, align 8
  %8 = alloca i32, align 4
  store ptr %0, ptr %3, align 8
  call void @llvm.lifetime.start.p0(i64 4, ptr %4) #6
  store i32 -1, ptr %4, align 4
  call void @llvm.lifetime.start.p0(i64 4, ptr %5) #6
  call void @llvm.lifetime.start.p0(i64 4, ptr %6) #6
  call void @llvm.lifetime.start.p0(i64 8, ptr %7) #6
  %9 = load ptr, ptr %3, align 8
  %10 = getelementptr inbounds nuw %struct.xcgroup_t, ptr %9, i32 0, i32 2
  %11 = load ptr, ptr %10, align 8
  store ptr %11, ptr %7, align 8
  store i32 18, ptr %5, align 4
  %12 = load i32, ptr %5, align 4
  %13 = call i32 @umask(i32 noundef %12) #6
  store i32 %13, ptr %6, align 4
  %14 = load ptr, ptr %7, align 8
  %15 = call i32 @mkdir(ptr noundef %14, i32 noundef 493) #6
  %16 = icmp ne i32 %15, 0
  br i1 %16, label %17, label %28

17:                                               ; preds = %1
  %18 = call ptr @__errno_location() #7
  %19 = load i32, ptr %18, align 4
  %20 = icmp ne i32 %19, 17
  br i1 %20, label %21, label %27

21:                                               ; preds = %17
  %22 = load ptr, ptr %7, align 8
  %23 = call i32 (ptr, ...) @error(ptr noundef @.str.12, ptr noundef @__func__.common_cgroup_instantiate, ptr noundef %22)
  %24 = load i32, ptr %6, align 4
  %25 = call i32 @umask(i32 noundef %24) #6
  %26 = load i32, ptr %4, align 4
  store i32 %26, ptr %2, align 4
  store i32 1, ptr %8, align 4
  br label %32

27:                                               ; preds = %17
  br label %28

28:                                               ; preds = %27, %1
  %29 = load i32, ptr %6, align 4
  %30 = call i32 @umask(i32 noundef %29) #6
  store i32 0, ptr %4, align 4
  %31 = load i32, ptr %4, align 4
  store i32 %31, ptr %2, align 4
  store i32 1, ptr %8, align 4
  br label %32

32:                                               ; preds = %28, %21
  call void @llvm.lifetime.end.p0(i64 8, ptr %7) #6
  call void @llvm.lifetime.end.p0(i64 4, ptr %6) #6
  call void @llvm.lifetime.end.p0(i64 4, ptr %5) #6
  call void @llvm.lifetime.end.p0(i64 4, ptr %4) #6
  %33 = load i32, ptr %2, align 4
  ret i32 %33
}