; Function Attrs: nounwind uwtable
define dso_local range(i32 -1, 1) i32 @common_cgroup_instantiate(ptr noundef readonly captures(none) %0) local_unnamed_addr #0 {
  %2 = getelementptr inbounds nuw i8, ptr %0, i64 16
  %3 = load ptr, ptr %2, align 8
  %4 = tail call i32 @umask(i32 noundef 18) #8
  %5 = tail call i32 @mkdir(ptr noundef %3, i32 noundef 493) #8
  %.not = icmp eq i32 %5, 0
  br i1 %.not, label %11, label %6

6:                                                ; preds = %1
  %7 = tail call ptr @__errno_location() #9
  %8 = load i32, ptr %7, align 4
  %.not8 = icmp eq i32 %8, 17
  br i1 %.not8, label %11, label %9

9:                                                ; preds = %6
  %10 = tail call i32 (ptr, ...) @error(ptr noundef nonnull @.str.12, ptr noundef nonnull @__func__.common_cgroup_instantiate, ptr noundef %3) #8
  br label %11

11:                                               ; preds = %1, %6, %9
  %.0 = phi i32 [ -1, %9 ], [ 0, %6 ], [ 0, %1 ]
  %12 = tail call i32 @umask(i32 noundef %4) #8
  ret i32 %.0
}